target datalayout = "e-m:e-p270:32:32-p271:32:32-p272:64:64-i64:64-i128:128-f80:128-n8:16:32:64-S128"
target triple = "x86_64-pc-linux-gnu"

%"struct.duckdb_zstd::ZSTD_customMem" = type { ptr, ptr, ptr }
%"struct.duckdb_zstd::ZSTD_compressionParameters" = type { i32, i32, i32, i32, i32, i32, i32 }
%"struct.duckdb_zstd::ZSTD_cwksp" = type { ptr, ptr, ptr, ptr, ptr, ptr, ptr, i8, i32, i32, i32 }
%"struct.duckdb_zstd::ZSTD_window_t" = type { ptr, ptr, ptr, i32, i32, i32 }
%"struct.duckdb_zstd::ZSTD_matchState_t" = type { %"struct.duckdb_zstd::ZSTD_window_t", i32, i32, i32, i32, ptr, [8 x i32], i64, i32, ptr, ptr, ptr, i32, i32, %"struct.duckdb_zstd::optState_t", ptr, %"struct.duckdb_zstd::ZSTD_compressionParameters", ptr, i32, i32 }
%"struct.duckdb_zstd::optState_t" = type { ptr, ptr, ptr, ptr, ptr, ptr, i32, i32, i32, i32, i32, i32, i32, i32, i32, ptr, i32 }
%"struct.duckdb_zstd::ZSTD_compressedBlockState_t" = type { %"struct.duckdb_zstd::ZSTD_entropyCTables_t", [3 x i32] }
%"struct.duckdb_zstd::ZSTD_entropyCTables_t" = type { %"struct.duckdb_zstd::ZSTD_hufCTables_t", %"struct.duckdb_zstd::ZSTD_fseCTables_t" }
%"struct.duckdb_zstd::ZSTD_hufCTables_t" = type { [257 x i64], i32 }
%"struct.duckdb_zstd::ZSTD_fseCTables_t" = type { [193 x i32], [363 x i32], [329 x i32], i32, i32, i32 }
%"struct.duckdb_zstd::ZSTD_CDict_s" = type { ptr, i64, i32, ptr, %"struct.duckdb_zstd::ZSTD_cwksp", %"struct.duckdb_zstd::ZSTD_matchState_t", %"struct.duckdb_zstd::ZSTD_compressedBlockState_t", %"struct.duckdb_zstd::ZSTD_customMem", i32, i32, i32 }

; Function Attrs: mustprogress nounwind uwtable
define noundef i32 @_ZN11duckdb_zstd24ZSTD_getDictID_fromCDictEPKNS_12ZSTD_CDict_sE(ptr noundef %0) #0 {
  %2 = alloca i32, align 4
  %3 = alloca ptr, align 8
  store ptr %0, ptr %3, align 8, !tbaa !92
  %4 = load ptr, ptr %3, align 8, !tbaa !92
  %5 = icmp eq ptr %4, null
  br i1 %5, label %6, label %7

6:                                                ; preds = %1
  store i32 0, ptr %2, align 4
  br label %11

7:                                                ; preds = %1
  %8 = load ptr, ptr %3, align 8, !tbaa !92
  %9 = getelementptr inbounds nuw %"struct.duckdb_zstd::ZSTD_CDict_s", ptr %8, i32 0, i32 8
  %10 = load i32, ptr %9, align 8, !tbaa !320
  store i32 %10, ptr %2, align 4
  br label %11

11:                                               ; preds = %7, %6
  %12 = load i32, ptr %2, align 4
  ret i32 %12
}